Certificate:
    Data:
        Version: 3 (0x2)
        Serial Number: 4096 (0x1000)
        Signature Algorithm: md5WithRSAEncryption
        Issuer: C=us, ST=utah, L=slc, O=uofu, OU=msd, CN=melanie/emailAddress=melanie.prettyman98@gmail.com
        Validity
            Not Before: Mar 14 20:24:08 2024 GMT
            Not After : Mar 14 20:24:08 2025 GMT
        Subject: C=us, ST=utah, O=uofu, OU=msd, CN=melanieServer/emailAddress=melanie.prettyman98@gmail.com
        Subject Public Key Info:
            Public Key Algorithm: rsaEncryption
                Public-Key: (4096 bit)
                Modulus:
                    00:c6:08:1f:36:d7:28:98:52:0f:c7:61:a8:85:50:
                    18:6e:64:44:59:05:27:d2:93:67:a8:87:70:d3:d4:
                    19:72:b1:d4:2b:80:e8:03:0f:c4:b0:b7:0d:d9:b4:
                    c4:a6:c5:51:17:91:e9:71:18:b1:69:a5:7a:4d:47:
                    db:97:01:ca:84:39:e0:54:52:4e:bd:fc:60:f2:51:
                    42:89:8c:94:2f:c5:b9:70:14:ab:62:a2:d6:6d:cf:
                    ff:bd:31:d4:f4:4e:32:b9:9b:75:71:00:80:45:82:
                    eb:dd:3f:27:dd:63:eb:bf:34:52:9f:b5:64:e7:59:
                    e4:45:5f:4d:d0:21:bd:36:54:09:3c:0c:62:a8:21:
                    34:64:ac:2e:1e:27:cf:14:96:43:2d:cd:d7:bd:bb:
                    c3:8a:e5:46:b7:1f:b8:66:09:12:20:d3:8f:64:7e:
                    8c:71:f3:f5:c6:bc:ef:0e:ac:c6:62:1a:26:44:db:
                    70:3e:af:13:e7:a1:01:3c:ab:57:49:74:6f:5a:51:
                    2c:ed:bb:9c:13:6d:ab:03:a0:09:fa:ba:d4:f6:94:
                    ea:d4:c7:c3:da:af:e2:da:d5:5c:7c:fd:70:9c:5e:
                    e4:d2:6d:30:8f:cc:b4:04:23:40:fd:64:74:b0:d5:
                    2a:99:5d:8e:27:06:1e:2c:a0:49:7f:75:47:31:11:
                    cb:d3:fa:2c:91:57:34:aa:4b:76:26:e4:39:26:be:
                    96:b3:9c:23:9c:7f:79:45:2f:19:2d:f7:e8:28:d5:
                    c3:80:10:6a:ef:3e:ed:a2:32:06:44:81:13:07:7b:
                    13:a4:28:23:50:b7:fa:6e:c1:94:b5:63:39:21:eb:
                    32:0f:70:5b:2e:6d:9d:11:05:b1:fd:a3:73:bb:8b:
                    7c:c4:05:68:bc:a5:30:c9:56:9d:7b:53:d0:41:f0:
                    d0:ad:c7:7f:b8:33:44:62:ae:dd:19:29:a2:3d:80:
                    48:e4:59:fe:6e:fa:d6:3d:c1:5f:55:ce:11:39:03:
                    b6:58:1c:10:b0:3f:2e:1c:fc:34:d0:a7:a8:e0:c5:
                    62:88:3a:8d:50:aa:fe:7e:d2:d3:a1:2e:fb:9e:4d:
                    69:0e:ab:26:de:09:16:86:48:fc:31:75:e4:d5:b8:
                    0d:f7:50:53:a2:6b:6f:63:b9:f8:18:c1:4c:08:dd:
                    c4:b2:4c:c0:ae:45:23:56:d6:f9:2d:33:c2:8e:58:
                    63:b1:32:90:7e:69:96:ab:87:76:57:c5:7d:22:d4:
                    86:57:2c:55:c2:50:44:5a:1f:b8:67:04:5c:ca:f5:
                    61:22:e0:b3:91:33:05:ad:14:7d:9b:5c:f4:8a:6f:
                    40:e8:50:f3:87:c2:01:cf:2d:80:9b:19:09:26:10:
                    3f:bd:eb
                Exponent: 65537 (0x10001)
        X509v3 extensions:
            X509v3 Basic Constraints: 
                CA:FALSE
            Netscape Comment: 
                OpenSSL Generated Certificate
            X509v3 Subject Key Identifier: 
                E1:B6:09:2D:D3:42:59:10:50:B6:3B:80:47:B7:AF:4E:68:5D:AB:67
            X509v3 Authority Key Identifier: 
                keyid:0F:05:85:52:17:BF:E2:78:26:8B:10:58:5D:9D:24:B7:CA:4C:BE:44
                DirName:/C=us/ST=utah/L=slc/O=uofu/OU=msd/CN=melanie/emailAddress=melanie.prettyman98@gmail.com
                serial:77:54:0A:B6:C1:F9:B6:6A:30:F4:81:FA:01:72:F1:F1:C2:FD:7B:1E
    Signature Algorithm: md5WithRSAEncryption
    Signature Value:
        87:5f:7b:b7:e5:b6:71:43:6e:b2:5f:11:d9:73:92:8a:1f:7d:
        bb:44:55:64:17:73:87:f4:96:57:d9:3f:3d:05:51:58:2b:f5:
        e7:08:dc:80:44:56:ea:90:67:14:70:17:0e:53:93:04:0c:fd:
        db:87:e1:e7:14:ab:43:15:da:49:b6:46:f3:1f:6e:47:70:c5:
        33:47:8a:0a:95:bd:61:43:60:6e:0b:ba:41:17:f0:3a:81:63:
        56:a4:c4:93:78:5f:b9:03:62:2d:5f:39:e9:4f:90:15:90:ec:
        5f:f0:03:3f:80:9e:ca:97:df:2e:b4:c0:e1:07:d6:ab:8b:d8:
        20:92:d1:5c:d9:be:fd:7f:0d:ac:62:9f:09:a8:c3:da:de:5a:
        e3:55:c9:92:ab:68:0f:12:ea:fe:33:34:31:89:65:e6:39:56:
        0a:22:9b:3e:d2:a5:58:15:c9:9b:3c:52:0d:39:3d:50:41:55:
        53:26:dc:1d:f4:ab:c8:87:18:42:90:6e:38:35:57:11:c0:7b:
        fc:66:08:b2:e6:15:07:e2:fa:7d:23:a7:06:db:50:fd:6e:28:
        66:bf:d2:2f:01:4a:4f:4f:0a:90:fa:2d:f1:5e:69:5c:e7:55:
        da:11:31:76:18:97:d8:0f:f8:39:22:8b:3a:b2:2b:15:32:43:
        ec:e7:2d:84:32:ef:87:ab:35:ba:4f:ca:b3:36:d1:6c:96:94:
        1f:cd:e0:26:b2:8e:6f:76:f1:51:b0:7e:b7:f9:9c:13:fe:22:
        7b:69:8d:d1:64:8d:4e:67:82:f5:57:41:69:63:5e:59:e4:2c:
        9b:47:b5:ff:61:12:fd:3f:ff:7e:04:0b:81:e6:dc:42:5d:79:
        aa:5d:40:ee:ad:43:a2:80:ec:45:a9:10:05:9b:61:33:3e:6e:
        d8:bf:8e:a9:dd:98:e2:cf:00:45:63:51:69:01:52:16:12:03:
        d1:67:43:b3:c2:a8:17:02:15:d0:b8:ae:23:a6:11:46:07:2f:
        a1:47:da:d3:f8:49:44:9e:35:f0:21:6c:df:c1:d1:3a:f5:5d:
        11:17:a5:a9:14:42:93:27:db:89:13:9f:20:bb:8f:ee:59:0e:
        ae:53:19:0e:39:33:53:19:14:e8:68:f6:32:7f:bb:13:2d:8c:
        e3:24:22:c0:00:1a:02:b0:bb:11:c9:bb:b4:02:04:ac:bb:f3:
        f0:52:1b:be:2f:89:d2:30:e1:d7:d2:3c:dd:5b:a3:b2:de:ce:
        82:ba:47:8a:1f:08:31:9d:e5:2f:f5:69:2d:de:da:9d:e6:3e:
        f8:e8:c1:ab:ba:2e:77:f1:8a:bb:3f:dd:9f:7b:60:41:61:3b:
        d3:c1:fd:74:7f:04:46:c1
-----BEGIN CERTIFICATE-----
MIIGqzCCBJOgAwIBAgICEAAwDQYJKoZIhvcNAQEEBQAwgYcxCzAJBgNVBAYTAnVz
MQ0wCwYDVQQIDAR1dGFoMQwwCgYDVQQHDANzbGMxDTALBgNVBAoMBHVvZnUxDDAK
BgNVBAsMA21zZDEQMA4GA1UEAwwHbWVsYW5pZTEsMCoGCSqGSIb3DQEJARYdbWVs
YW5pZS5wcmV0dHltYW45OEBnbWFpbC5jb20wHhcNMjQwMzE0MjAyNDA4WhcNMjUw
MzE0MjAyNDA4WjB/MQswCQYDVQQGEwJ1czENMAsGA1UECAwEdXRhaDENMAsGA1UE
CgwEdW9mdTEMMAoGA1UECwwDbXNkMRYwFAYDVQQDDA1tZWxhbmllU2VydmVyMSww
KgYJKoZIhvcNAQkBFh1tZWxhbmllLnByZXR0eW1hbjk4QGdtYWlsLmNvbTCCAiIw
DQYJKoZIhvcNAQEBBQADggIPADCCAgoCggIBAMYIHzbXKJhSD8dhqIVQGG5kRFkF
J9KTZ6iHcNPUGXKx1CuA6AMPxLC3Ddm0xKbFUReR6XEYsWmlek1H25cByoQ54FRS
Tr38YPJRQomMlC/FuXAUq2Ki1m3P/70x1PROMrmbdXEAgEWC690/J91j6780Up+1
ZOdZ5EVfTdAhvTZUCTwMYqghNGSsLh4nzxSWQy3N1727w4rlRrcfuGYJEiDTj2R+
jHHz9ca87w6sxmIaJkTbcD6vE+ehATyrV0l0b1pRLO27nBNtqwOgCfq61PaU6tTH
w9qv4trVXHz9cJxe5NJtMI/MtAQjQP1kdLDVKpldjicGHiygSX91RzERy9P6LJFX
NKpLdibkOSa+lrOcI5x/eUUvGS336CjVw4AQau8+7aIyBkSBEwd7E6QoI1C3+m7B
lLVjOSHrMg9wWy5tnREFsf2jc7uLfMQFaLylMMlWnXtT0EHw0K3Hf7gzRGKu3Rkp
oj2ASORZ/m761j3BX1XOETkDtlgcELA/Lhz8NNCnqODFYog6jVCq/n7S06Eu+55N
aQ6rJt4JFoZI/DF15NW4DfdQU6Jrb2O5+BjBTAjdxLJMwK5FI1bW+S0zwo5YY7Ey
kH5plquHdlfFfSLUhlcsVcJQRFofuGcEXMr1YSLgs5EzBa0UfZtc9IpvQOhQ84fC
Ac8tgJsZCSYQP73rAgMBAAGjggEmMIIBIjAJBgNVHRMEAjAAMCwGCWCGSAGG+EIB
DQQfFh1PcGVuU1NMIEdlbmVyYXRlZCBDZXJ0aWZpY2F0ZTAdBgNVHQ4EFgQU4bYJ
LdNCWRBQtjuAR7evTmhdq2cwgccGA1UdIwSBvzCBvIAUDwWFUhe/4ngmixBYXZ0k
t8pMvkShgY2kgYowgYcxCzAJBgNVBAYTAnVzMQ0wCwYDVQQIDAR1dGFoMQwwCgYD
VQQHDANzbGMxDTALBgNVBAoMBHVvZnUxDDAKBgNVBAsMA21zZDEQMA4GA1UEAwwH
bWVsYW5pZTEsMCoGCSqGSIb3DQEJARYdbWVsYW5pZS5wcmV0dHltYW45OEBnbWFp
bC5jb22CFHdUCrbB+bZqMPSB+gFy8fHC/XseMA0GCSqGSIb3DQEBBAUAA4ICAQCH
X3u35bZxQ26yXxHZc5KKH327RFVkF3OH9JZX2T89BVFYK/XnCNyARFbqkGcUcBcO
U5MEDP3bh+HnFKtDFdpJtkbzH25HcMUzR4oKlb1hQ2BuC7pBF/A6gWNWpMSTeF+5
A2ItXznpT5AVkOxf8AM/gJ7Kl98utMDhB9ari9ggktFc2b79fw2sYp8JqMPa3lrj
VcmSq2gPEur+MzQxiWXmOVYKIps+0qVYFcmbPFINOT1QQVVTJtwd9KvIhxhCkG44
NVcRwHv8Zgiy5hUH4vp9I6cG21D9bihmv9IvAUpPTwqQ+i3xXmlc51XaETF2GJfY
D/g5Ios6sisVMkPs5y2EMu+HqzW6T8qzNtFslpQfzeAmso5vdvFRsH63+ZwT/iJ7
aY3RZI1OZ4L1V0FpY15Z5CybR7X/YRL9P/9+BAuB5txCXXmqXUDurUOigOxFqRAF
m2EzPm7Yv46p3ZjizwBFY1FpAVIWEgPRZ0OzwqgXAhXQuK4jphFGBy+hR9rT+ElE
njXwIWzfwdE69V0RF6WpFEKTJ9uJE58gu4/uWQ6uUxkOOTNTGRToaPYyf7sTLYzj
JCLAABoCsLsRybu0AgSsu/PwUhu+L4nSMOHX0jzdW6Oy3s6CukeKHwgxneUv9Wkt
3tqd5j746MGrui538Yq7P92fe2BBYTvTwf10fwRGwQ==
-----END CERTIFICATE-----
