Certificate:
    Data:
        Version: 3 (0x2)
        Serial Number: 4097 (0x1001)
        Signature Algorithm: md5WithRSAEncryption
        Issuer: C=us, ST=utah, L=slc, O=uofu, OU=msd, CN=melanie/emailAddress=melanie.prettyman98@gmail.com
        Validity
            Not Before: Mar 14 20:24:42 2024 GMT
            Not After : Mar 14 20:24:42 2025 GMT
        Subject: C=us, ST=utah, O=uofu, OU=msd, CN=melanieClient/emailAddress=melanie.prettyman98@gmail.com
        Subject Public Key Info:
            Public Key Algorithm: rsaEncryption
                Public-Key: (4096 bit)
                Modulus:
                    00:cd:30:0e:e3:88:8f:9b:2b:1c:ee:6c:a7:02:06:
                    58:21:d0:17:02:dd:80:6f:6d:9e:9b:ef:5f:b1:48:
                    25:dd:85:5b:f7:31:e6:17:08:bd:da:b4:c8:96:34:
                    60:03:49:66:87:06:54:3e:3c:b4:96:c3:92:14:9c:
                    c3:ca:40:63:58:7f:5c:30:06:6c:7a:6b:c9:5f:4a:
                    87:e0:e9:6b:48:ef:b4:cf:26:ed:1a:0b:a5:7e:b9:
                    1f:5d:88:c4:f2:ed:2d:08:73:07:ae:80:83:08:4b:
                    75:4f:fa:9f:3e:48:35:0b:c1:17:33:e0:db:7f:f0:
                    78:59:f1:7f:69:bf:7a:1a:ac:dc:dd:6a:82:ad:b6:
                    14:e5:2f:4e:44:0f:52:1f:8d:d6:01:0d:b1:a5:26:
                    ec:da:a9:90:0a:1e:ba:87:38:fb:e5:d1:d0:66:f1:
                    44:1f:ea:fd:91:3b:23:9b:b3:5c:26:7f:dc:bd:91:
                    0a:ec:b7:61:0f:07:06:4c:e9:13:a5:86:6f:59:a2:
                    5e:d7:22:64:02:a9:9e:f6:90:ba:5a:56:b2:0e:29:
                    b8:4f:56:8a:e6:13:45:d9:bb:b5:01:4e:94:35:c4:
                    7b:53:bf:59:a1:fb:4c:09:af:e1:b9:9d:9f:70:27:
                    57:61:ad:9c:71:5e:61:e3:ce:37:5f:62:c3:1d:fc:
                    e6:e4:99:db:66:65:03:fa:15:6c:97:79:e9:96:55:
                    4a:f1:20:18:e9:1f:10:b8:cf:4b:cd:01:26:71:f1:
                    c1:d7:bf:69:d2:2f:b4:d3:fd:55:48:34:5e:10:74:
                    18:7d:2c:bf:9c:5b:a3:6c:45:53:09:6f:ae:26:7c:
                    53:62:09:e4:45:66:aa:ea:71:42:0d:5e:ac:e5:06:
                    07:0f:47:51:29:b7:e5:27:d4:b8:72:5d:9d:86:1a:
                    fa:57:53:65:74:f2:88:f5:49:4d:1f:6e:cd:98:30:
                    13:e8:2b:b4:ec:31:4c:67:fc:b3:ff:db:81:06:f8:
                    46:e8:a0:a8:9a:5f:68:97:2b:c3:6d:9d:3d:2c:05:
                    f9:be:13:00:f6:7d:5e:04:b8:c1:91:1a:22:4b:ff:
                    53:9c:0f:1c:5e:33:b0:a9:1f:5a:73:6b:68:d2:7f:
                    fd:c8:01:01:13:33:65:af:57:4c:a3:07:6d:2d:1a:
                    4a:08:7c:8d:f2:a1:b2:9c:a1:ae:86:db:48:1b:ec:
                    6c:36:8d:85:55:c3:81:cf:42:3e:f0:a5:bb:f9:88:
                    56:88:34:f7:12:e5:2d:41:d8:15:82:19:d0:f6:4f:
                    f5:db:4d:9d:e3:3a:6c:51:c3:f0:57:81:d8:2c:77:
                    4d:20:b1:93:6d:1a:4e:3f:a0:ce:ee:58:e8:ab:8d:
                    8e:f2:07
                Exponent: 65537 (0x10001)
        X509v3 extensions:
            X509v3 Basic Constraints: 
                CA:FALSE
            Netscape Comment: 
                OpenSSL Generated Certificate
            X509v3 Subject Key Identifier: 
                A2:71:25:88:8A:C8:79:27:FF:C8:95:F8:FB:FB:BD:E7:F5:8C:19:E6
            X509v3 Authority Key Identifier: 
                keyid:0F:05:85:52:17:BF:E2:78:26:8B:10:58:5D:9D:24:B7:CA:4C:BE:44
                DirName:/C=us/ST=utah/L=slc/O=uofu/OU=msd/CN=melanie/emailAddress=melanie.prettyman98@gmail.com
                serial:77:54:0A:B6:C1:F9:B6:6A:30:F4:81:FA:01:72:F1:F1:C2:FD:7B:1E
    Signature Algorithm: md5WithRSAEncryption
    Signature Value:
        c6:0e:88:13:e4:71:fb:f7:34:e2:fe:7a:ca:25:a6:d1:ee:44:
        e6:6c:57:0d:dd:17:d2:b6:c5:f3:c2:a5:3a:af:cd:a9:39:bf:
        9c:a8:34:93:9b:07:6a:cd:18:f8:12:08:c7:c6:d8:31:0e:7f:
        6e:7e:ac:62:37:8e:9b:39:e2:cd:f2:c1:4a:11:54:50:8d:80:
        03:71:1f:53:06:7c:ca:a4:6c:6e:ca:a6:62:db:b7:1a:91:31:
        7b:3f:73:5e:fe:b3:5a:23:1c:58:99:ae:d4:f2:0d:86:20:f8:
        24:c3:b7:a0:a5:09:5c:2e:a2:e2:14:f2:d4:c8:1e:79:6b:4d:
        bc:1b:71:c7:ce:bf:72:90:91:5e:f6:7a:9e:0f:87:e4:b1:0b:
        f8:ac:5b:58:1a:64:ae:30:a9:27:e4:99:cd:61:4c:ec:10:aa:
        c0:8d:7b:49:8d:b0:3b:de:dd:bf:86:44:c3:f5:78:71:f1:b0:
        75:03:34:74:2b:b7:6a:88:82:da:c8:d8:61:b3:b9:69:ec:05:
        fb:20:18:18:f4:19:ac:5b:9e:76:a4:7e:3f:fb:af:19:9a:03:
        33:12:91:c5:35:f6:e7:c1:ed:34:6c:cb:c7:da:f3:22:ca:1b:
        bb:c3:46:43:be:7e:6f:2b:6a:f9:cd:1f:ce:3c:83:65:de:81:
        45:0c:70:48:04:5f:37:39:1d:a4:17:a5:d9:33:d2:4d:5a:35:
        c7:1a:f4:46:9d:ea:12:bd:55:b3:2d:d7:5d:fa:cb:ef:4c:8c:
        a2:45:f9:79:31:28:cc:de:52:b2:10:f1:e5:da:60:f6:90:2d:
        c4:33:d7:a4:5b:a4:6a:96:0b:9a:f7:46:7c:5d:21:2c:38:2e:
        67:00:f2:16:6e:61:73:97:25:06:78:57:fe:e1:1a:17:77:15:
        82:fc:fd:35:d3:06:3a:c7:9d:98:e2:9c:a8:a5:c4:fc:ea:e0:
        01:47:3d:c4:76:7a:72:b7:2c:64:b0:2d:3b:d9:e9:03:e7:ea:
        7c:96:e5:84:d3:fa:e8:6f:a4:16:a1:b5:63:95:8b:87:3b:01:
        9d:fc:05:6e:43:9e:c0:ad:e8:89:87:a8:72:e4:c2:ba:01:80:
        b5:f6:c5:3b:36:4b:06:3b:e7:dd:ee:e6:db:6b:09:2a:6d:2e:
        9d:da:a9:27:ce:0e:cf:ad:d3:1c:85:0c:7e:5f:13:3c:49:42:
        bd:57:4a:f1:9a:66:a0:88:22:0c:83:a6:01:9e:97:06:25:bb:
        fb:9b:5a:cd:dd:bd:9f:d7:a8:9a:4a:fa:73:93:ce:e1:ba:8d:
        72:49:4a:ce:2a:78:cd:a0:b5:81:fc:45:fb:28:27:3a:3b:5a:
        66:aa:60:e7:4d:4b:a2:7f
-----BEGIN CERTIFICATE-----
MIIGqzCCBJOgAwIBAgICEAEwDQYJKoZIhvcNAQEEBQAwgYcxCzAJBgNVBAYTAnVz
MQ0wCwYDVQQIDAR1dGFoMQwwCgYDVQQHDANzbGMxDTALBgNVBAoMBHVvZnUxDDAK
BgNVBAsMA21zZDEQMA4GA1UEAwwHbWVsYW5pZTEsMCoGCSqGSIb3DQEJARYdbWVs
YW5pZS5wcmV0dHltYW45OEBnbWFpbC5jb20wHhcNMjQwMzE0MjAyNDQyWhcNMjUw
MzE0MjAyNDQyWjB/MQswCQYDVQQGEwJ1czENMAsGA1UECAwEdXRhaDENMAsGA1UE
CgwEdW9mdTEMMAoGA1UECwwDbXNkMRYwFAYDVQQDDA1tZWxhbmllQ2xpZW50MSww
KgYJKoZIhvcNAQkBFh1tZWxhbmllLnByZXR0eW1hbjk4QGdtYWlsLmNvbTCCAiIw
DQYJKoZIhvcNAQEBBQADggIPADCCAgoCggIBAM0wDuOIj5srHO5spwIGWCHQFwLd
gG9tnpvvX7FIJd2FW/cx5hcIvdq0yJY0YANJZocGVD48tJbDkhScw8pAY1h/XDAG
bHpryV9Kh+Dpa0jvtM8m7RoLpX65H12IxPLtLQhzB66AgwhLdU/6nz5INQvBFzPg
23/weFnxf2m/ehqs3N1qgq22FOUvTkQPUh+N1gENsaUm7NqpkAoeuoc4++XR0Gbx
RB/q/ZE7I5uzXCZ/3L2RCuy3YQ8HBkzpE6WGb1miXtciZAKpnvaQulpWsg4puE9W
iuYTRdm7tQFOlDXEe1O/WaH7TAmv4bmdn3AnV2GtnHFeYePON19iwx385uSZ22Zl
A/oVbJd56ZZVSvEgGOkfELjPS80BJnHxwde/adIvtNP9VUg0XhB0GH0sv5xbo2xF
UwlvriZ8U2IJ5EVmqupxQg1erOUGBw9HUSm35SfUuHJdnYYa+ldTZXTyiPVJTR9u
zZgwE+grtOwxTGf8s//bgQb4RuigqJpfaJcrw22dPSwF+b4TAPZ9XgS4wZEaIkv/
U5wPHF4zsKkfWnNraNJ//cgBARMzZa9XTKMHbS0aSgh8jfKhspyhrobbSBvsbDaN
hVXDgc9CPvClu/mIVog09xLlLUHYFYIZ0PZP9dtNneM6bFHD8FeB2Cx3TSCxk20a
Tj+gzu5Y6KuNjvIHAgMBAAGjggEmMIIBIjAJBgNVHRMEAjAAMCwGCWCGSAGG+EIB
DQQfFh1PcGVuU1NMIEdlbmVyYXRlZCBDZXJ0aWZpY2F0ZTAdBgNVHQ4EFgQUonEl
iIrIeSf/yJX4+/u95/WMGeYwgccGA1UdIwSBvzCBvIAUDwWFUhe/4ngmixBYXZ0k
t8pMvkShgY2kgYowgYcxCzAJBgNVBAYTAnVzMQ0wCwYDVQQIDAR1dGFoMQwwCgYD
VQQHDANzbGMxDTALBgNVBAoMBHVvZnUxDDAKBgNVBAsMA21zZDEQMA4GA1UEAwwH
bWVsYW5pZTEsMCoGCSqGSIb3DQEJARYdbWVsYW5pZS5wcmV0dHltYW45OEBnbWFp
bC5jb22CFHdUCrbB+bZqMPSB+gFy8fHC/XseMA0GCSqGSIb3DQEBBAUAA4ICAQDG
DogT5HH79zTi/nrKJabR7kTmbFcN3RfStsXzwqU6r82pOb+cqDSTmwdqzRj4EgjH
xtgxDn9ufqxiN46bOeLN8sFKEVRQjYADcR9TBnzKpGxuyqZi27cakTF7P3Ne/rNa
IxxYma7U8g2GIPgkw7egpQlcLqLiFPLUyB55a028G3HHzr9ykJFe9nqeD4fksQv4
rFtYGmSuMKkn5JnNYUzsEKrAjXtJjbA73t2/hkTD9Xhx8bB1AzR0K7dqiILayNhh
s7lp7AX7IBgY9BmsW552pH4/+68ZmgMzEpHFNfbnwe00bMvH2vMiyhu7w0ZDvn5v
K2r5zR/OPINl3oFFDHBIBF83OR2kF6XZM9JNWjXHGvRGneoSvVWzLddd+svvTIyi
Rfl5MSjM3lKyEPHl2mD2kC3EM9ekW6Rqlgua90Z8XSEsOC5nAPIWbmFzlyUGeFf+
4RoXdxWC/P010wY6x52Y4pyopcT86uABRz3EdnpytyxksC072ekD5+p8luWE0/ro
b6QWobVjlYuHOwGd/AVuQ57AreiJh6hy5MK6AYC19sU7NksGO+fd7ubbawkqbS6d
2qknzg7PrdMchQx+XxM8SUK9V0rxmmagiCIMg6YBnpcGJbv7m1rN3b2f16iaSvpz
k87huo1ySUrOKnjNoLWB/EX7KCc6O1pmqmDnTUuifw==
-----END CERTIFICATE-----
